target datalayout = "e-m:e-p270:32:32-p271:32:32-p272:64:64-i64:64-i128:128-f80:128-n8:16:32:64-S128"
target triple = "x86_64-unknown-linux-gnu"

%"class.QuantLib::ZigguratRng" = type { %"class.QuantLib::MersenneTwisterUniformRng" }
%"class.QuantLib::MersenneTwisterUniformRng" = type { [624 x i64], i64 }

@_ZZNK8QuantLib11ZigguratRng12nextGaussianEvE1c = internal constant [2 x i32] [i32 -1, i32 1], align 4
@_ZN8QuantLib23InverseCumulativeNormal6x_low_E = external constant double, align 8
@_ZN8QuantLib23InverseCumulativeNormal7x_high_E = external constant double, align 8
@_ZN8QuantLib23InverseCumulativeNormal3a1_E = external constant double, align 8
@_ZN8QuantLib23InverseCumulativeNormal3a2_E = external constant double, align 8
@_ZN8QuantLib23InverseCumulativeNormal3a3_E = external constant double, align 8
@_ZN8QuantLib23InverseCumulativeNormal3a4_E = external constant double, align 8
@_ZN8QuantLib23InverseCumulativeNormal3a5_E = external constant double, align 8
@_ZN8QuantLib23InverseCumulativeNormal3a6_E = external constant double, align 8
@_ZN8QuantLib23InverseCumulativeNormal3b1_E = external constant double, align 8
@_ZN8QuantLib23InverseCumulativeNormal3b2_E = external constant double, align 8
@_ZN8QuantLib23InverseCumulativeNormal3b3_E = external constant double, align 8
@_ZN8QuantLib23InverseCumulativeNormal3b4_E = external constant double, align 8
@_ZN8QuantLib23InverseCumulativeNormal3b5_E = external constant double, align 8

; Function Attrs: mustprogress uwtable
define linkonce_odr noundef double @_ZN8QuantLib23InverseCumulativeNormal14standard_valueEd(double noundef %x) #0 comdat align 2 {
entry:
  %x.addr = alloca double, align 8
  %z = alloca double, align 8
  %r = alloca double, align 8
  store double %x, ptr %x.addr, align 8, !tbaa !11
  call void @llvm.lifetime.start.p0(i64 8, ptr %z) #5
  %0 = load double, ptr %x.addr, align 8, !tbaa !11
  %1 = load double, ptr @_ZN8QuantLib23InverseCumulativeNormal6x_low_E, align 8, !tbaa !11
  %cmp = fcmp olt double %0, %1
  br i1 %cmp, label %if.then, label %lor.lhs.false

lor.lhs.false:                                    ; preds = %entry
  %2 = load double, ptr @_ZN8QuantLib23InverseCumulativeNormal7x_high_E, align 8, !tbaa !11
  %3 = load double, ptr %x.addr, align 8, !tbaa !11
  %cmp1 = fcmp olt double %2, %3
  br i1 %cmp1, label %if.then, label %if.else

if.then:                                          ; preds = %lor.lhs.false, %entry
  %4 = load double, ptr %x.addr, align 8, !tbaa !11
  %call = call noundef double @_ZN8QuantLib23InverseCumulativeNormal10tail_valueEd(double noundef %4)
  store double %call, ptr %z, align 8, !tbaa !11
  br label %if.end

if.else:                                          ; preds = %lor.lhs.false
  %5 = load double, ptr %x.addr, align 8, !tbaa !11
  %sub = fsub double %5, 5.000000e-01
  store double %sub, ptr %z, align 8, !tbaa !11
  call void @llvm.lifetime.start.p0(i64 8, ptr %r) #5
  %6 = load double, ptr %z, align 8, !tbaa !11
  %7 = load double, ptr %z, align 8, !tbaa !11
  %mul = fmul double %6, %7
  store double %mul, ptr %r, align 8, !tbaa !11
  %8 = load double, ptr @_ZN8QuantLib23InverseCumulativeNormal3a1_E, align 8, !tbaa !11
  %9 = load double, ptr %r, align 8, !tbaa !11
  %10 = load double, ptr @_ZN8QuantLib23InverseCumulativeNormal3a2_E, align 8, !tbaa !11
  %11 = call double @llvm.fmuladd.f64(double %8, double %9, double %10)
  %12 = load double, ptr %r, align 8, !tbaa !11
  %13 = load double, ptr @_ZN8QuantLib23InverseCumulativeNormal3a3_E, align 8, !tbaa !11
  %14 = call double @llvm.fmuladd.f64(double %11, double %12, double %13)
  %15 = load double, ptr %r, align 8, !tbaa !11
  %16 = load double, ptr @_ZN8QuantLib23InverseCumulativeNormal3a4_E, align 8, !tbaa !11
  %17 = call double @llvm.fmuladd.f64(double %14, double %15, double %16)
  %18 = load double, ptr %r, align 8, !tbaa !11
  %19 = load double, ptr @_ZN8QuantLib23InverseCumulativeNormal3a5_E, align 8, !tbaa !11
  %20 = call double @llvm.fmuladd.f64(double %17, double %18, double %19)
  %21 = load double, ptr %r, align 8, !tbaa !11
  %22 = load double, ptr @_ZN8QuantLib23InverseCumulativeNormal3a6_E, align 8, !tbaa !11
  %23 = call double @llvm.fmuladd.f64(double %20, double %21, double %22)
  %24 = load double, ptr %z, align 8, !tbaa !11
  %mul7 = fmul double %23, %24
  %25 = load double, ptr @_ZN8QuantLib23InverseCumulativeNormal3b1_E, align 8, !tbaa !11
  %26 = load double, ptr %r, align 8, !tbaa !11
  %27 = load double, ptr @_ZN8QuantLib23InverseCumulativeNormal3b2_E, align 8, !tbaa !11
  %28 = call double @llvm.fmuladd.f64(double %25, double %26, double %27)
  %29 = load double, ptr %r, align 8, !tbaa !11
  %30 = load double, ptr @_ZN8QuantLib23InverseCumulativeNormal3b3_E, align 8, !tbaa !11
  %31 = call double @llvm.fmuladd.f64(double %28, double %29, double %30)
  %32 = load double, ptr %r, align 8, !tbaa !11
  %33 = load double, ptr @_ZN8QuantLib23InverseCumulativeNormal3b4_E, align 8, !tbaa !11
  %34 = call double @llvm.fmuladd.f64(double %31, double %32, double %33)
  %35 = load double, ptr %r, align 8, !tbaa !11
  %36 = load double, ptr @_ZN8QuantLib23InverseCumulativeNormal3b5_E, align 8, !tbaa !11
  %37 = call double @llvm.fmuladd.f64(double %34, double %35, double %36)
  %38 = load double, ptr %r, align 8, !tbaa !11
  %39 = call double @llvm.fmuladd.f64(double %37, double %38, double 1.000000e+00)
  %div = fdiv double %mul7, %39
  store double %div, ptr %z, align 8, !tbaa !11
  call void @llvm.lifetime.end.p0(i64 8, ptr %r) #5
  br label %if.end

if.end:                                           ; preds = %if.else, %if.then
  %40 = load double, ptr %z, align 8, !tbaa !11
  call void @llvm.lifetime.end.p0(i64 8, ptr %z) #5
  ret double %40
}

; Function Attrs: mustprogress uwtable
define linkonce_odr noundef double @_ZNK8QuantLib25MersenneTwisterUniformRng8nextRealEv(ptr noundef nonnull align 8 dereferenceable(5000) %this) #0 comdat align 2 {
entry:
  %this.addr = alloca ptr, align 8
  store ptr %this, ptr %this.addr, align 8, !tbaa !3
  %this1 = load ptr, ptr %this.addr, align 8
  %call = call noundef i64 @_ZNK8QuantLib25MersenneTwisterUniformRng9nextInt32Ev(ptr noundef nonnull align 8 dereferenceable(5000) %this1)
  %conv = uitofp i64 %call to double
  %add = fadd double %conv, 5.000000e-01
  %div = fdiv double %add, 0x41F0000000000000
  ret double %div
}

; Function Attrs: mustprogress uwtable
define linkonce_odr noundef i64 @_ZNK8QuantLib25MersenneTwisterUniformRng9nextInt32Ev(ptr noundef nonnull align 8 dereferenceable(5000) %this) #0 comdat align 2 {
entry:
  %this.addr = alloca ptr, align 8
  %y = alloca i64, align 8
  store ptr %this, ptr %this.addr, align 8, !tbaa !3
  %this1 = load ptr, ptr %this.addr, align 8
  %mti = getelementptr inbounds nuw %"class.QuantLib::MersenneTwisterUniformRng", ptr %this1, i32 0, i32 1
  %0 = load i64, ptr %mti, align 8, !tbaa !15
  %cmp = icmp eq i64 %0, 624
  br i1 %cmp, label %if.then, label %if.end

if.then:                                          ; preds = %entry
  call void @_ZNK8QuantLib25MersenneTwisterUniformRng5twistEv(ptr noundef nonnull align 8 dereferenceable(5000) %this1)
  br label %if.end

if.end:                                           ; preds = %if.then, %entry
  call void @llvm.lifetime.start.p0(i64 8, ptr %y) #5
  %mt = getelementptr inbounds nuw %"class.QuantLib::MersenneTwisterUniformRng", ptr %this1, i32 0, i32 0
  %mti2 = getelementptr inbounds nuw %"class.QuantLib::MersenneTwisterUniformRng", ptr %this1, i32 0, i32 1
  %1 = load i64, ptr %mti2, align 8, !tbaa !15
  %inc = add i64 %1, 1
  store i64 %inc, ptr %mti2, align 8, !tbaa !15
  %arrayidx = getelementptr inbounds nuw [624 x i64], ptr %mt, i64 0, i64 %1
  %2 = load i64, ptr %arrayidx, align 8, !tbaa !7
  store i64 %2, ptr %y, align 8, !tbaa !7
  %3 = load i64, ptr %y, align 8, !tbaa !7
  %shr = lshr i64 %3, 11
  %4 = load i64, ptr %y, align 8, !tbaa !7
  %xor = xor i64 %4, %shr
  store i64 %xor, ptr %y, align 8, !tbaa !7
  %5 = load i64, ptr %y, align 8, !tbaa !7
  %shl = shl i64 %5, 7
  %and = and i64 %shl, 2636928640
  %6 = load i64, ptr %y, align 8, !tbaa !7
  %xor3 = xor i64 %6, %and
  store i64 %xor3, ptr %y, align 8, !tbaa !7
  %7 = load i64, ptr %y, align 8, !tbaa !7
  %shl4 = shl i64 %7, 15
  %and5 = and i64 %shl4, 4022730752
  %8 = load i64, ptr %y, align 8, !tbaa !7
  %xor6 = xor i64 %8, %and5
  store i64 %xor6, ptr %y, align 8, !tbaa !7
  %9 = load i64, ptr %y, align 8, !tbaa !7
  %shr7 = lshr i64 %9, 18
  %10 = load i64, ptr %y, align 8, !tbaa !7
  %xor8 = xor i64 %10, %shr7
  store i64 %xor8, ptr %y, align 8, !tbaa !7
  %11 = load i64, ptr %y, align 8, !tbaa !7
  call void @llvm.lifetime.end.p0(i64 8, ptr %y) #5
  ret i64 %11
}

; Function Attrs: mustprogress uwtable
define noundef double @_ZNK8QuantLib11ZigguratRng12nextGaussianEv(ptr noundef nonnull align 8 dereferenceable(5000) %this) #0 align 2 {
entry:
  %this.addr = alloca ptr, align 8
  %x = alloca double, align 8
  %j = alloca i64, align 8
  %f = alloca i32, align 4
  %i = alloca i64, align 8
  %cleanup.dest.slot = alloca i32, align 4
  store ptr %this, ptr %this.addr, align 8, !tbaa !3
  %this1 = load ptr, ptr %this.addr, align 8
  call void @llvm.lifetime.start.p0(i64 8, ptr %x) #5
  br label %for.cond

for.cond:                                         ; preds = %cleanup.cont, %entry
  call void @llvm.lifetime.start.p0(i64 8, ptr %j) #5
  %mt32_ = getelementptr inbounds nuw %"class.QuantLib::ZigguratRng", ptr %this1, i32 0, i32 0
  %call = call noundef i64 @_ZNK8QuantLib25MersenneTwisterUniformRng9nextInt32Ev(ptr noundef nonnull align 8 dereferenceable(5000) %mt32_)
  store i64 %call, ptr %j, align 8, !tbaa !7
  call void @llvm.lifetime.start.p0(i64 4, ptr %f) #5
  %0 = load i64, ptr %j, align 8, !tbaa !7
  %and = and i64 %0, 1
  %conv = trunc i64 %and to i32
  store i32 %conv, ptr %f, align 4, !tbaa !9
  %1 = load i64, ptr %j, align 8, !tbaa !7
  %shr = lshr i64 %1, 1
  store i64 %shr, ptr %j, align 8, !tbaa !7
  call void @llvm.lifetime.start.p0(i64 8, ptr %i) #5
  %2 = load i64, ptr %j, align 8, !tbaa !7
  %and2 = and i64 %2, 127
  store i64 %and2, ptr %i, align 8, !tbaa !7
  %3 = load i64, ptr %j, align 8, !tbaa !7
  %shr3 = lshr i64 %3, 7
  store i64 %shr3, ptr %j, align 8, !tbaa !7
  %4 = load i32, ptr %f, align 4, !tbaa !9
  %idxprom = sext i32 %4 to i64
  %arrayidx = getelementptr inbounds [2 x i32], ptr @_ZZNK8QuantLib11ZigguratRng12nextGaussianEvE1c, i64 0, i64 %idxprom
  %5 = load i32, ptr %arrayidx, align 4, !tbaa !9
  %conv4 = sext i32 %5 to i64
  %6 = load i64, ptr %j, align 8, !tbaa !7
  %mul = mul nsw i64 %conv4, %6
  %conv5 = sitofp i64 %mul to double
  %7 = load i64, ptr %i, align 8, !tbaa !7
  %arrayidx6 = getelementptr inbounds nuw [128 x double], ptr @_ZN8QuantLib12_GLOBAL__N_12w_E, i64 0, i64 %7
  %8 = load double, ptr %arrayidx6, align 8, !tbaa !11
  %mul7 = fmul double %conv5, %8
  store double %mul7, ptr %x, align 8, !tbaa !11
  %9 = load i64, ptr %j, align 8, !tbaa !7
  %10 = load i64, ptr %i, align 8, !tbaa !7
  %arrayidx8 = getelementptr inbounds nuw [128 x i64], ptr @_ZN8QuantLib12_GLOBAL__N_12k_E, i64 0, i64 %10
  %11 = load i64, ptr %arrayidx8, align 8, !tbaa !7
  %cmp = icmp ult i64 %9, %11
  br i1 %cmp, label %if.then, label %if.end

if.then:                                          ; preds = %for.cond
  store i32 2, ptr %cleanup.dest.slot, align 4
  br label %cleanup

if.end:                                           ; preds = %for.cond
  %12 = load i64, ptr %i, align 8, !tbaa !7
  %cmp9 = icmp ne i64 %12, 0
  br i1 %cmp9, label %if.then10, label %if.else

if.then10:                                        ; preds = %if.end
  %13 = load i64, ptr %i, align 8, !tbaa !7
  %sub = sub i64 %13, 1
  %arrayidx11 = getelementptr inbounds nuw [128 x double], ptr @_ZN8QuantLib12_GLOBAL__N_12f_E, i64 0, i64 %sub
  %14 = load double, ptr %arrayidx11, align 8, !tbaa !11
  %15 = load i64, ptr %i, align 8, !tbaa !7
  %arrayidx12 = getelementptr inbounds nuw [128 x double], ptr @_ZN8QuantLib12_GLOBAL__N_12f_E, i64 0, i64 %15
  %16 = load double, ptr %arrayidx12, align 8, !tbaa !11
  %sub13 = fsub double %14, %16
  %mt32_14 = getelementptr inbounds nuw %"class.QuantLib::ZigguratRng", ptr %this1, i32 0, i32 0
  %call15 = call noundef double @_ZNK8QuantLib25MersenneTwisterUniformRng8nextRealEv(ptr noundef nonnull align 8 dereferenceable(5000) %mt32_14)
  %17 = load i64, ptr %i, align 8, !tbaa !7
  %arrayidx17 = getelementptr inbounds nuw [128 x double], ptr @_ZN8QuantLib12_GLOBAL__N_12f_E, i64 0, i64 %17
  %18 = load double, ptr %arrayidx17, align 8, !tbaa !11
  %19 = call double @llvm.fmuladd.f64(double %sub13, double %call15, double %18)
  %20 = load double, ptr %x, align 8, !tbaa !11
  %mul18 = fmul double -5.000000e-01, %20
  %21 = load double, ptr %x, align 8, !tbaa !11
  %mul19 = fmul double %mul18, %21
  %call20 = call double @exp(double noundef %mul19) #5, !tbaa !9
  %cmp21 = fcmp olt double %19, %call20
  br i1 %cmp21, label %if.then22, label %if.end23

if.then22:                                        ; preds = %if.then10
  store i32 2, ptr %cleanup.dest.slot, align 4
  br label %cleanup

if.end23:                                         ; preds = %if.then10
  br label %if.end32

if.else:                                          ; preds = %if.end
  %22 = load i32, ptr %f, align 4, !tbaa !9
  %idxprom24 = sext i32 %22 to i64
  %arrayidx25 = getelementptr inbounds [2 x i32], ptr @_ZZNK8QuantLib11ZigguratRng12nextGaussianEvE1c, i64 0, i64 %idxprom24
  %23 = load i32, ptr %arrayidx25, align 4, !tbaa !9
  %conv26 = sitofp i32 %23 to double
  %mt32_27 = getelementptr inbounds nuw %"class.QuantLib::ZigguratRng", ptr %this1, i32 0, i32 0
  %call28 = call noundef double @_ZNK8QuantLib25MersenneTwisterUniformRng8nextRealEv(ptr noundef nonnull align 8 dereferenceable(5000) %mt32_27)
  %24 = call double @llvm.fmuladd.f64(double 0x3F32E0BEF35FB922, double %call28, double 0x3FEFFDA3E8219409)
  %call30 = call noundef double @_ZN8QuantLib23InverseCumulativeNormal14standard_valueEd(double noundef %24)
  %mul31 = fmul double %conv26, %call30
  store double %mul31, ptr %x, align 8, !tbaa !11
  store i32 2, ptr %cleanup.dest.slot, align 4
  br label %cleanup

if.end32:                                         ; preds = %if.end23
  store i32 0, ptr %cleanup.dest.slot, align 4
  br label %cleanup

cleanup:                                          ; preds = %if.end32, %if.else, %if.then22, %if.then
  call void @llvm.lifetime.end.p0(i64 8, ptr %i) #5
  call void @llvm.lifetime.end.p0(i64 4, ptr %f) #5
  call void @llvm.lifetime.end.p0(i64 8, ptr %j) #5
  %cleanup.dest = load i32, ptr %cleanup.dest.slot, align 4
  switch i32 %cleanup.dest, label %unreachable [
    i32 0, label %cleanup.cont
    i32 2, label %for.end
  ]

cleanup.cont:                                     ; preds = %cleanup
  br label %for.cond, !llvm.loop !13

for.end:                                          ; preds = %cleanup
  %25 = load double, ptr %x, align 8, !tbaa !11
  store i32 1, ptr %cleanup.dest.slot, align 4
  call void @llvm.lifetime.end.p0(i64 8, ptr %x) #5
  ret double %25

unreachable:                                      ; preds = %cleanup
  unreachable
}