; Function Attrs: mustprogress uwtable
define noundef double @_ZNK8QuantLib11ZigguratRng12nextGaussianEv(ptr noundef nonnull align 8 dereferenceable(5000) %this) local_unnamed_addr #0 align 2 {
entry:
  %mti.i = getelementptr inbounds nuw i8, ptr %this, i64 4992
  %.pre = load i64, ptr %mti.i, align 8, !tbaa !3
  br label %for.cond

for.cond:                                         ; preds = %_ZNK8QuantLib25MersenneTwisterUniformRng8nextRealEv.exit, %entry
  %0 = phi i64 [ %inc.i.i, %_ZNK8QuantLib25MersenneTwisterUniformRng8nextRealEv.exit ], [ %.pre, %entry ]
  %cmp.i = icmp eq i64 %0, 624
  br i1 %cmp.i, label %if.then.i, label %_ZNK8QuantLib25MersenneTwisterUniformRng9nextInt32Ev.exit

if.then.i:                                        ; preds = %for.cond
  tail call void @_ZNK8QuantLib25MersenneTwisterUniformRng5twistEv(ptr noundef nonnull align 8 dereferenceable(5000) %this)
  %.pre.i = load i64, ptr %mti.i, align 8, !tbaa !3
  br label %_ZNK8QuantLib25MersenneTwisterUniformRng9nextInt32Ev.exit

_ZNK8QuantLib25MersenneTwisterUniformRng9nextInt32Ev.exit: ; preds = %for.cond, %if.then.i
  %1 = phi i64 [ %.pre.i, %if.then.i ], [ %0, %for.cond ]
  %inc.i = add i64 %1, 1
  store i64 %inc.i, ptr %mti.i, align 8, !tbaa !3
  %arrayidx.i = getelementptr inbounds nuw [624 x i64], ptr %this, i64 0, i64 %1
  %2 = load i64, ptr %arrayidx.i, align 8, !tbaa !8
  %shr.i = lshr i64 %2, 11
  %xor.i = xor i64 %shr.i, %2
  %shl.i = shl i64 %xor.i, 7
  %and.i = and i64 %shl.i, 2636928640
  %xor3.i = xor i64 %and.i, %xor.i
  %shl4.i = shl i64 %xor3.i, 15
  %and5.i = and i64 %shl4.i, 4022730752
  %xor6.i = xor i64 %and5.i, %xor3.i
  %shr7.i = lshr i64 %xor6.i, 18
  %xor8.i = xor i64 %shr7.i, %xor6.i
  %conv = and i64 %xor8.i, 1
  %shr = lshr i64 %xor8.i, 1
  %and2 = and i64 %shr, 127
  %shr3 = lshr i64 %xor8.i, 8
  %arrayidx = getelementptr inbounds [2 x i32], ptr @_ZZNK8QuantLib11ZigguratRng12nextGaussianEvE1c, i64 0, i64 %conv
  %3 = load i32, ptr %arrayidx, align 4, !tbaa !9
  %conv4 = sext i32 %3 to i64
  %mul = mul nsw i64 %shr3, %conv4
  %conv5 = sitofp i64 %mul to double
  %arrayidx6 = getelementptr inbounds nuw [128 x double], ptr @_ZN8QuantLib12_GLOBAL__N_12w_E, i64 0, i64 %and2
  %4 = load double, ptr %arrayidx6, align 8, !tbaa !11
  %mul7 = fmul double %4, %conv5
  %arrayidx8 = getelementptr inbounds nuw [128 x i64], ptr @_ZN8QuantLib12_GLOBAL__N_12k_E, i64 0, i64 %and2
  %5 = load i64, ptr %arrayidx8, align 8, !tbaa !8
  %cmp = icmp ult i64 %shr3, %5
  br i1 %cmp, label %for.end, label %if.end

if.end:                                           ; preds = %_ZNK8QuantLib25MersenneTwisterUniformRng9nextInt32Ev.exit
  %cmp9.not = icmp eq i64 %and2, 0
  br i1 %cmp9.not, label %if.else, label %if.then10

if.then10:                                        ; preds = %if.end
  %sub = add nsw i64 %and2, -1
  %arrayidx11 = getelementptr inbounds nuw [128 x double], ptr @_ZN8QuantLib12_GLOBAL__N_12f_E, i64 0, i64 %sub
  %6 = load double, ptr %arrayidx11, align 8, !tbaa !11
  %arrayidx12 = getelementptr inbounds nuw [128 x double], ptr @_ZN8QuantLib12_GLOBAL__N_12f_E, i64 0, i64 %and2
  %7 = load double, ptr %arrayidx12, align 8, !tbaa !11
  %sub13 = fsub double %6, %7
  %cmp.i.i = icmp eq i64 %inc.i, 624
  br i1 %cmp.i.i, label %if.then.i.i, label %_ZNK8QuantLib25MersenneTwisterUniformRng8nextRealEv.exit

if.then.i.i:                                      ; preds = %if.then10
  tail call void @_ZNK8QuantLib25MersenneTwisterUniformRng5twistEv(ptr noundef nonnull align 8 dereferenceable(5000) %this)
  %.pre.i.i = load i64, ptr %mti.i, align 8, !tbaa !3
  br label %_ZNK8QuantLib25MersenneTwisterUniformRng8nextRealEv.exit

_ZNK8QuantLib25MersenneTwisterUniformRng8nextRealEv.exit: ; preds = %if.then10, %if.then.i.i
  %8 = phi i64 [ %.pre.i.i, %if.then.i.i ], [ %inc.i, %if.then10 ]
  %inc.i.i = add i64 %8, 1
  store i64 %inc.i.i, ptr %mti.i, align 8, !tbaa !3
  %arrayidx.i.i = getelementptr inbounds nuw [624 x i64], ptr %this, i64 0, i64 %8
  %9 = load i64, ptr %arrayidx.i.i, align 8, !tbaa !8
  %shr.i.i = lshr i64 %9, 11
  %xor.i.i = xor i64 %shr.i.i, %9
  %shl.i.i = shl i64 %xor.i.i, 7
  %and.i.i = and i64 %shl.i.i, 2636928640
  %xor3.i.i = xor i64 %and.i.i, %xor.i.i
  %shl4.i.i = shl i64 %xor3.i.i, 15
  %and5.i.i = and i64 %shl4.i.i, 4022730752
  %xor6.i.i = xor i64 %and5.i.i, %xor3.i.i
  %shr7.i.i = lshr i64 %xor6.i.i, 18
  %xor8.i.i = xor i64 %shr7.i.i, %xor6.i.i
  %conv.i = uitofp i64 %xor8.i.i to double
  %add.i = fadd double %conv.i, 5.000000e-01
  %div.i = fmul double %add.i, 0x3DF0000000000000
  %10 = tail call double @llvm.fmuladd.f64(double %sub13, double %div.i, double %7)
  %mul18 = fmul double %mul7, -5.000000e-01
  %mul19 = fmul double %mul7, %mul18
  %call20 = tail call double @exp(double noundef %mul19) #4, !tbaa !9
  %cmp21 = fcmp olt double %10, %call20
  br i1 %cmp21, label %for.end, label %for.cond

if.else:                                          ; preds = %if.end
  %conv26 = sitofp i32 %3 to double
  %cmp.i.i15 = icmp eq i64 %inc.i, 624
  br i1 %cmp.i.i15, label %if.then.i.i31, label %_ZNK8QuantLib25MersenneTwisterUniformRng8nextRealEv.exit33

if.then.i.i31:                                    ; preds = %if.else
  tail call void @_ZNK8QuantLib25MersenneTwisterUniformRng5twistEv(ptr noundef nonnull align 8 dereferenceable(5000) %this)
  %.pre.i.i32 = load i64, ptr %mti.i, align 8, !tbaa !3
  br label %_ZNK8QuantLib25MersenneTwisterUniformRng8nextRealEv.exit33

_ZNK8QuantLib25MersenneTwisterUniformRng8nextRealEv.exit33: ; preds = %if.else, %if.then.i.i31
  %11 = phi i64 [ %.pre.i.i32, %if.then.i.i31 ], [ %inc.i, %if.else ]
  %inc.i.i16 = add i64 %11, 1
  store i64 %inc.i.i16, ptr %mti.i, align 8, !tbaa !3
  %arrayidx.i.i17 = getelementptr inbounds nuw [624 x i64], ptr %this, i64 0, i64 %11
  %12 = load i64, ptr %arrayidx.i.i17, align 8, !tbaa !8
  %shr.i.i18 = lshr i64 %12, 11
  %xor.i.i19 = xor i64 %shr.i.i18, %12
  %shl.i.i20 = shl i64 %xor.i.i19, 7
  %and.i.i21 = and i64 %shl.i.i20, 2636928640
  %xor3.i.i22 = xor i64 %and.i.i21, %xor.i.i19
  %shl4.i.i23 = shl i64 %xor3.i.i22, 15
  %and5.i.i24 = and i64 %shl4.i.i23, 4022730752
  %xor6.i.i25 = xor i64 %and5.i.i24, %xor3.i.i22
  %shr7.i.i26 = lshr i64 %xor6.i.i25, 18
  %xor8.i.i27 = xor i64 %shr7.i.i26, %xor6.i.i25
  %conv.i28 = uitofp i64 %xor8.i.i27 to double
  %add.i29 = fadd double %conv.i28, 5.000000e-01
  %div.i30 = fmul double %add.i29, 0x3DF0000000000000
  %13 = tail call double @llvm.fmuladd.f64(double %div.i30, double 0x3F32E0BEF35FB922, double 0x3FEFFDA3E8219409)
  %14 = load double, ptr @_ZN8QuantLib23InverseCumulativeNormal6x_low_E, align 8, !tbaa !11
  %cmp.i34 = fcmp olt double %13, %14
  %15 = load double, ptr @_ZN8QuantLib23InverseCumulativeNormal7x_high_E, align 8
  %cmp1.i = fcmp olt double %15, %13
  %or.cond.i = select i1 %cmp.i34, i1 true, i1 %cmp1.i
  br i1 %or.cond.i, label %if.then.i36, label %if.else.i

if.then.i36:                                      ; preds = %_ZNK8QuantLib25MersenneTwisterUniformRng8nextRealEv.exit33
  %call.i = tail call noundef double @_ZN8QuantLib23InverseCumulativeNormal10tail_valueEd(double noundef %13)
  br label %_ZN8QuantLib23InverseCumulativeNormal14standard_valueEd.exit

if.else.i:                                        ; preds = %_ZNK8QuantLib25MersenneTwisterUniformRng8nextRealEv.exit33
  %sub.i = fadd double %13, -5.000000e-01
  %mul.i = fmul double %sub.i, %sub.i
  %16 = load double, ptr @_ZN8QuantLib23InverseCumulativeNormal3a1_E, align 8, !tbaa !11
  %17 = load double, ptr @_ZN8QuantLib23InverseCumulativeNormal3a2_E, align 8, !tbaa !11
  %18 = tail call double @llvm.fmuladd.f64(double %16, double %mul.i, double %17)
  %19 = load double, ptr @_ZN8QuantLib23InverseCumulativeNormal3a3_E, align 8, !tbaa !11
  %20 = tail call double @llvm.fmuladd.f64(double %18, double %mul.i, double %19)
  %21 = load double, ptr @_ZN8QuantLib23InverseCumulativeNormal3a4_E, align 8, !tbaa !11
  %22 = tail call double @llvm.fmuladd.f64(double %20, double %mul.i, double %21)
  %23 = load double, ptr @_ZN8QuantLib23InverseCumulativeNormal3a5_E, align 8, !tbaa !11
  %24 = tail call double @llvm.fmuladd.f64(double %22, double %mul.i, double %23)
  %25 = load double, ptr @_ZN8QuantLib23InverseCumulativeNormal3a6_E, align 8, !tbaa !11
  %26 = tail call double @llvm.fmuladd.f64(double %24, double %mul.i, double %25)
  %mul7.i = fmul double %sub.i, %26
  %27 = load double, ptr @_ZN8QuantLib23InverseCumulativeNormal3b1_E, align 8, !tbaa !11
  %28 = load double, ptr @_ZN8QuantLib23InverseCumulativeNormal3b2_E, align 8, !tbaa !11
  %29 = tail call double @llvm.fmuladd.f64(double %27, double %mul.i, double %28)
  %30 = load double, ptr @_ZN8QuantLib23InverseCumulativeNormal3b3_E, align 8, !tbaa !11
  %31 = tail call double @llvm.fmuladd.f64(double %29, double %mul.i, double %30)
  %32 = load double, ptr @_ZN8QuantLib23InverseCumulativeNormal3b4_E, align 8, !tbaa !11
  %33 = tail call double @llvm.fmuladd.f64(double %31, double %mul.i, double %32)
  %34 = load double, ptr @_ZN8QuantLib23InverseCumulativeNormal3b5_E, align 8, !tbaa !11
  %35 = tail call double @llvm.fmuladd.f64(double %33, double %mul.i, double %34)
  %36 = tail call double @llvm.fmuladd.f64(double %35, double %mul.i, double 1.000000e+00)
  %div.i35 = fdiv double %mul7.i, %36
  br label %_ZN8QuantLib23InverseCumulativeNormal14standard_valueEd.exit

_ZN8QuantLib23InverseCumulativeNormal14standard_valueEd.exit: ; preds = %if.then.i36, %if.else.i
  %z.0.i = phi double [ %call.i, %if.then.i36 ], [ %div.i35, %if.else.i ]
  %mul31 = fmul double %z.0.i, %conv26
  br label %for.end

for.end:                                          ; preds = %_ZNK8QuantLib25MersenneTwisterUniformRng8nextRealEv.exit, %_ZNK8QuantLib25MersenneTwisterUniformRng9nextInt32Ev.exit, %_ZN8QuantLib23InverseCumulativeNormal14standard_valueEd.exit
  %x.0.ph = phi double [ %mul31, %_ZN8QuantLib23InverseCumulativeNormal14standard_valueEd.exit ], [ %mul7, %_ZNK8QuantLib25MersenneTwisterUniformRng9nextInt32Ev.exit ], [ %mul7, %_ZNK8QuantLib25MersenneTwisterUniformRng8nextRealEv.exit ]
  ret double %x.0.ph
}